; Function Attrs: nounwind uwtable
define void @Gia_ManPermuteTree(ptr noundef readonly captures(none) %0, i32 noundef %1, i32 noundef %2, i32 noundef %3, i32 noundef %4, i32 noundef %5) local_unnamed_addr #0 {
  %7 = alloca %struct.timespec, align 8
  %8 = alloca %struct.timespec, align 8
  call void @llvm.lifetime.start.p0(i64 16, ptr nonnull %8) #24
  %9 = call i32 @clock_gettime(i32 noundef 1, ptr noundef nonnull %8) #24
  %10 = icmp slt i32 %9, 0
  br i1 %10, label %Abc_Clock.exit, label %11

11:                                               ; preds = %6
  %12 = load i64, ptr %8, align 8, !tbaa !57
  %.neg20 = mul i64 %12, -1000000
  %13 = getelementptr inbounds nuw i8, ptr %8, i64 8
  %14 = load i64, ptr %13, align 8, !tbaa !59
  %.neg = sdiv i64 %14, -1000
  %.neg21 = add i64 %.neg, %.neg20
  br label %Abc_Clock.exit

Abc_Clock.exit:                                   ; preds = %6, %11
  %.0.i.neg = phi i64 [ %.neg21, %11 ], [ 1, %6 ]
  call void @llvm.lifetime.end.p0(i64 16, ptr nonnull %8) #24
  %15 = mul nsw i32 %3, %2
  %16 = sext i32 %15 to i64
  %17 = shl nsw i64 %16, 3
  %18 = call noalias ptr @malloc(i64 noundef %17) #22
  %19 = icmp sgt i32 %15, 0
  br i1 %19, label %.lr.ph18.preheader.i.us.preheader, label %Abc_TtCopy.exit.preheader

Abc_TtCopy.exit.preheader:                        ; preds = %Abc_Clock.exit
  %20 = call i32 @Gia_ManRandom(i32 noundef 1) #24
  br label %Abc_TtCopy.exit

.lr.ph18.preheader.i.us.preheader:                ; preds = %Abc_Clock.exit
  %wide.trip.count24.i.i = zext nneg i32 %15 to i64
  %21 = shl nuw nsw i64 %wide.trip.count24.i.i, 3
  call void @llvm.memcpy.p0.p0.i64(ptr align 8 %18, ptr readonly align 8 %0, i64 %21, i1 false), !tbaa !16
  %22 = call i32 @Gia_ManRandom(i32 noundef 1) #24
  %23 = shl nuw nsw i64 %wide.trip.count24.i.i, 3
  br label %.lr.ph18.preheader.i.us

.lr.ph18.preheader.i.us:                          ; preds = %.lr.ph18.preheader.i.us.preheader, %.lr.ph18.preheader.i.us
  %.022.us = phi i32 [ %25, %.lr.ph18.preheader.i.us ], [ 0, %.lr.ph18.preheader.i.us.preheader ]
  %24 = call i32 @Gia_ManPermuteTreeOne(ptr noundef %18, i32 noundef %1, i32 noundef %2, i32 noundef %3, i32 noundef %4, ptr noundef null, i32 noundef 0, i32 noundef %5)
  call void @llvm.memcpy.p0.p0.i64(ptr align 8 %18, ptr align 8 %0, i64 %23, i1 false), !tbaa !16
  %25 = add nuw nsw i32 %.022.us, 1
  %exitcond24.not = icmp eq i32 %25, 100
  br i1 %exitcond24.not, label %.split.us, label %.lr.ph18.preheader.i.us, !llvm.loop !60

Abc_TtCopy.exit:                                  ; preds = %Abc_TtCopy.exit.preheader, %Abc_TtCopy.exit
  %.022 = phi i32 [ %27, %Abc_TtCopy.exit ], [ 0, %Abc_TtCopy.exit.preheader ]
  %26 = call i32 @Gia_ManPermuteTreeOne(ptr noundef %18, i32 noundef %1, i32 noundef %2, i32 noundef %3, i32 noundef %4, ptr noundef null, i32 noundef 0, i32 noundef %5)
  %27 = add nuw nsw i32 %.022, 1
  %exitcond.not = icmp eq i32 %27, 100
  br i1 %exitcond.not, label %.split.us, label %Abc_TtCopy.exit, !llvm.loop !60

.split.us:                                        ; preds = %Abc_TtCopy.exit, %.lr.ph18.preheader.i.us
  %.not = icmp eq ptr %18, null
  br i1 %.not, label %29, label %28

28:                                               ; preds = %.split.us
  call void @free(ptr noundef nonnull %18) #24
  br label %29

29:                                               ; preds = %.split.us, %28
  call void @llvm.lifetime.start.p0(i64 16, ptr nonnull %7) #24
  %30 = call i32 @clock_gettime(i32 noundef 1, ptr noundef nonnull %7) #24
  %31 = icmp slt i32 %30, 0
  br i1 %31, label %Abc_Clock.exit19, label %32

32:                                               ; preds = %29
  %33 = load i64, ptr %7, align 8, !tbaa !57
  %34 = mul nsw i64 %33, 1000000
  %35 = getelementptr inbounds nuw i8, ptr %7, i64 8
  %36 = load i64, ptr %35, align 8, !tbaa !59
  %37 = sdiv i64 %36, 1000
  %38 = add nsw i64 %37, %34
  br label %Abc_Clock.exit19

Abc_Clock.exit19:                                 ; preds = %29, %32
  %.0.i18 = phi i64 [ %38, %32 ], [ -1, %29 ]
  call void @llvm.lifetime.end.p0(i64 16, ptr nonnull %7) #24
  %39 = add i64 %.0.i18, %.0.i.neg
  call void (i32, ptr, ...) @Abc_Print(i32 poison, ptr noundef nonnull @.str.21, ptr noundef nonnull @.str.11)
  %40 = sitofp i64 %39 to double
  %41 = fdiv double %40, 1.000000e+06
  call void (i32, ptr, ...) @Abc_Print(i32 poison, ptr noundef nonnull @.str.22, double noundef %41)
  ret void
}